target datalayout = "e-m:e-p270:32:32-p271:32:32-p272:64:64-i64:64-i128:128-f80:128-n8:16:32:64-S128"
target triple = "x86_64-pc-linux-gnu"

%class.Metadata = type { ptr }
%class.AccessFlags = type { i32 }
%class.constantPoolHandle = type { ptr, ptr }
%class.fieldDescriptor = type { %class.FieldInfo, %class.constantPoolHandle }
%class.FieldInfo = type <{ i32, i16, i16, i32, %class.AccessFlags, %"class.FieldInfo::FieldFlags", i16, i16, i16, [2 x i8] }>
%"class.FieldInfo::FieldFlags" = type { i32 }
%class.ConstantPool = type <{ %class.Metadata, ptr, ptr, ptr, ptr, ptr, i16, i16, i16, i16, i16, [2 x i8], i32, %union.anon.10, [4 x i8] }>
%union.anon.10 = type { i32 }
%class.NoSafepointVerifier = type { ptr }
%class.Method = type { %class.Metadata, ptr, ptr, ptr, ptr, %class.AccessFlags, i32, %class.MethodFlags, i16, %class.JfrTraceFlag, ptr, ptr, ptr, ptr }
%class.MethodFlags = type { i32 }
%class.JfrTraceFlag = type { i16 }
%class.ConstMethod = type <{ i64, ptr, ptr, i32, %class.ConstMethodFlags, i8, i8, i16, i16, i16, i16, i16, i16, i16, i16, i16, [4 x i8] }>
%class.ConstMethodFlags = type { i32 }

; Function Attrs: mustprogress nounwind uwtable
define linkonce_odr hidden i32 @_ZNK9FieldInfo12access_flagsEv(ptr noundef nonnull align 4 dereferenceable(26) %0) #1 comdat align 2 {
  %2 = alloca %class.AccessFlags, align 4
  %3 = alloca ptr, align 8
  store ptr %0, ptr %3, align 8
  %4 = load ptr, ptr %3, align 8
  %5 = getelementptr inbounds %class.FieldInfo, ptr %4, i32 0, i32 4
  call void @llvm.memcpy.p0.p0.i64(ptr align 4 %2, ptr align 4 %5, i64 4, i1 false)
  %6 = getelementptr inbounds %class.AccessFlags, ptr %2, i32 0, i32 0
  %7 = load i32, ptr %6, align 4
  ret i32 %7
}

; Function Attrs: mustprogress nounwind uwtable
define linkonce_odr hidden noundef ptr @_ZNK11ConstMethod9constantsEv(ptr noundef nonnull align 8 dereferenceable(52) %0) #1 comdat align 2 {
  %2 = alloca ptr, align 8
  store ptr %0, ptr %2, align 8
  %3 = load ptr, ptr %2, align 8
  %4 = getelementptr inbounds %class.ConstMethod, ptr %3, i32 0, i32 1
  %5 = load ptr, ptr %4, align 8
  ret ptr %5
}

; Function Attrs: mustprogress nounwind uwtable
define linkonce_odr hidden noundef ptr @_ZNK6Method11constMethodEv(ptr noundef nonnull align 8 dereferenceable(88) %0) #1 comdat align 2 {
  %2 = alloca ptr, align 8
  store ptr %0, ptr %2, align 8
  %3 = load ptr, ptr %2, align 8
  %4 = getelementptr inbounds %class.Method, ptr %3, i32 0, i32 1
  %5 = load ptr, ptr %4, align 8
  ret ptr %5
}

; Function Attrs: mustprogress nounwind uwtable
define linkonce_odr hidden void @_ZN9FieldInfo10FieldFlagsC2Ej(ptr noundef nonnull align 4 dereferenceable(4) %0, i32 noundef %1) unnamed_addr #1 comdat align 2 {
  %3 = alloca ptr, align 8
  %4 = alloca i32, align 4
  store ptr %0, ptr %3, align 8
  store i32 %1, ptr %4, align 4
  %5 = load ptr, ptr %3, align 8
  %6 = load i32, ptr %4, align 4
  %7 = getelementptr inbounds %"class.FieldInfo::FieldFlags", ptr %5, i32 0, i32 0
  store i32 %6, ptr %7, align 4
  ret void
}

; Function Attrs: mustprogress nounwind uwtable
define linkonce_odr hidden void @_ZN11AccessFlagsC2Ei(ptr noundef nonnull align 4 dereferenceable(4) %0, i32 noundef %1) unnamed_addr #1 comdat align 2 {
  %3 = alloca ptr, align 8
  %4 = alloca i32, align 4
  store ptr %0, ptr %3, align 8
  store i32 %1, ptr %4, align 4
  %5 = load ptr, ptr %3, align 8
  %6 = getelementptr inbounds %class.AccessFlags, ptr %5, i32 0, i32 0
  %7 = load i32, ptr %4, align 4
  store i32 %7, ptr %6, align 4
  ret void
}

; Function Attrs: mustprogress nounwind uwtable
define linkonce_odr hidden i32 @_ZNK15fieldDescriptor12access_flagsEv(ptr noundef nonnull align 8 dereferenceable(48) %0) #1 comdat align 2 {
  %2 = alloca %class.AccessFlags, align 4
  %3 = alloca ptr, align 8
  store ptr %0, ptr %3, align 8
  %4 = load ptr, ptr %3, align 8
  %5 = getelementptr inbounds %class.fieldDescriptor, ptr %4, i32 0, i32 0
  %6 = call i32 @_ZNK9FieldInfo12access_flagsEv(ptr noundef nonnull align 4 dereferenceable(26) %5)
  %7 = getelementptr inbounds %class.AccessFlags, ptr %2, i32 0, i32 0
  store i32 %6, ptr %7, align 4
  %8 = getelementptr inbounds %class.AccessFlags, ptr %2, i32 0, i32 0
  %9 = load i32, ptr %8, align 4
  ret i32 %9
}

; Function Attrs: mustprogress nounwind uwtable
define linkonce_odr hidden noundef ptr @_ZNK12ConstantPool11pool_holderEv(ptr noundef nonnull align 8 dereferenceable(68) %0) #1 comdat align 2 {
  %2 = alloca ptr, align 8
  store ptr %0, ptr %2, align 8
  %3 = load ptr, ptr %2, align 8
  %4 = getelementptr inbounds %class.ConstantPool, ptr %3, i32 0, i32 3
  %5 = load ptr, ptr %4, align 8
  ret ptr %5
}

; Function Attrs: mustprogress nounwind uwtable
define linkonce_odr hidden noundef ptr @_ZNK6Method9constantsEv(ptr noundef nonnull align 8 dereferenceable(88) %0) #1 comdat align 2 {
  %2 = alloca ptr, align 8
  store ptr %0, ptr %2, align 8
  %3 = load ptr, ptr %2, align 8
  %4 = call noundef ptr @_ZNK6Method11constMethodEv(ptr noundef nonnull align 8 dereferenceable(88) %3)
  %5 = call noundef ptr @_ZNK11ConstMethod9constantsEv(ptr noundef nonnull align 8 dereferenceable(52) %4)
  ret ptr %5
}

; Function Attrs: mustprogress nounwind uwtable
define linkonce_odr hidden noundef zeroext i1 @_ZNK11AccessFlags12is_protectedEv(ptr noundef nonnull align 4 dereferenceable(4) %0) #1 comdat align 2 {
  %2 = alloca ptr, align 8
  store ptr %0, ptr %2, align 8
  %3 = load ptr, ptr %2, align 8
  %4 = getelementptr inbounds %class.AccessFlags, ptr %3, i32 0, i32 0
  %5 = load i32, ptr %4, align 4
  %6 = and i32 %5, 4
  %7 = icmp ne i32 %6, 0
  ret i1 %7
}

; Function Attrs: mustprogress nounwind uwtable
define linkonce_odr hidden i32 @_ZNK6Method12access_flagsEv(ptr noundef nonnull align 8 dereferenceable(88) %0) #1 comdat align 2 {
  %2 = alloca %class.AccessFlags, align 4
  %3 = alloca ptr, align 8
  store ptr %0, ptr %3, align 8
  %4 = load ptr, ptr %3, align 8
  %5 = getelementptr inbounds %class.Method, ptr %4, i32 0, i32 5
  call void @llvm.memcpy.p0.p0.i64(ptr align 4 %2, ptr align 8 %5, i64 4, i1 false)
  %6 = getelementptr inbounds %class.AccessFlags, ptr %2, i32 0, i32 0
  %7 = load i32, ptr %6, align 4
  ret i32 %7
}

; Function Attrs: mustprogress nounwind uwtable
define linkonce_odr hidden void @_ZN18constantPoolHandleC2Ev(ptr noundef nonnull align 8 dereferenceable(16) %0) unnamed_addr #1 comdat align 2 {
  %2 = alloca ptr, align 8
  store ptr %0, ptr %2, align 8
  %3 = load ptr, ptr %2, align 8
  %4 = getelementptr inbounds %class.constantPoolHandle, ptr %3, i32 0, i32 0
  store ptr null, ptr %4, align 8
  %5 = getelementptr inbounds %class.constantPoolHandle, ptr %3, i32 0, i32 1
  store ptr null, ptr %5, align 8
  ret void
}

; Function Attrs: mustprogress nounwind uwtable
define linkonce_odr hidden void @_ZN9FieldInfoC2Ev(ptr noundef nonnull align 4 dereferenceable(26) %0) unnamed_addr #1 comdat align 2 {
  %2 = alloca ptr, align 8
  store ptr %0, ptr %2, align 8
  %3 = load ptr, ptr %2, align 8
  %4 = getelementptr inbounds %class.FieldInfo, ptr %3, i32 0, i32 1
  store i16 0, ptr %4, align 4
  %5 = getelementptr inbounds %class.FieldInfo, ptr %3, i32 0, i32 2
  store i16 0, ptr %5, align 2
  %6 = getelementptr inbounds %class.FieldInfo, ptr %3, i32 0, i32 3
  store i32 0, ptr %6, align 4
  %7 = getelementptr inbounds %class.FieldInfo, ptr %3, i32 0, i32 4
  call void @_ZN11AccessFlagsC2Ei(ptr noundef nonnull align 4 dereferenceable(4) %7, i32 noundef 0)
  %8 = getelementptr inbounds %class.FieldInfo, ptr %3, i32 0, i32 5
  call void @_ZN9FieldInfo10FieldFlagsC2Ej(ptr noundef nonnull align 4 dereferenceable(4) %8, i32 noundef 0)
  %9 = getelementptr inbounds %class.FieldInfo, ptr %3, i32 0, i32 6
  store i16 0, ptr %9, align 4
  %10 = getelementptr inbounds %class.FieldInfo, ptr %3, i32 0, i32 7
  store i16 0, ptr %10, align 2
  %11 = getelementptr inbounds %class.FieldInfo, ptr %3, i32 0, i32 8
  store i16 0, ptr %11, align 4
  ret void
}

; Function Attrs: mustprogress nounwind uwtable
define linkonce_odr hidden noundef ptr @_ZN13InstanceKlass4castEPK5Klass(ptr noundef %0) #1 comdat align 2 {
  %2 = alloca ptr, align 8
  store ptr %0, ptr %2, align 8
  %3 = load ptr, ptr %2, align 8
  ret ptr %3
}

; Function Attrs: mustprogress nounwind uwtable
define linkonce_odr hidden void @_ZN19NoSafepointVerifierD2Ev(ptr noundef nonnull align 8 dereferenceable(8) %0) unnamed_addr #1 comdat align 2 {
  %2 = alloca ptr, align 8
  store ptr %0, ptr %2, align 8
  ret void
}

; Function Attrs: mustprogress nounwind uwtable
define linkonce_odr hidden void @_ZN15fieldDescriptorD2Ev(ptr noundef nonnull align 8 dereferenceable(48) %0) unnamed_addr #1 comdat align 2 {
  %2 = alloca ptr, align 8
  store ptr %0, ptr %2, align 8
  %3 = load ptr, ptr %2, align 8
  %4 = getelementptr inbounds %class.fieldDescriptor, ptr %3, i32 0, i32 1
  call void @_ZN18constantPoolHandleD1Ev(ptr noundef nonnull align 8 dereferenceable(16) %4) #11
  ret void
}

; Function Attrs: mustprogress nounwind uwtable
define linkonce_odr hidden noundef zeroext i1 @_ZNK15fieldDescriptor12is_protectedEv(ptr noundef nonnull align 8 dereferenceable(48) %0) #1 comdat align 2 {
  %2 = alloca ptr, align 8
  %3 = alloca %class.AccessFlags, align 4
  store ptr %0, ptr %2, align 8
  %4 = load ptr, ptr %2, align 8
  %5 = call i32 @_ZNK15fieldDescriptor12access_flagsEv(ptr noundef nonnull align 8 dereferenceable(48) %4)
  %6 = getelementptr inbounds %class.AccessFlags, ptr %3, i32 0, i32 0
  store i32 %5, ptr %6, align 4
  %7 = call noundef zeroext i1 @_ZNK11AccessFlags12is_protectedEv(ptr noundef nonnull align 4 dereferenceable(4) %3)
  ret i1 %7
}

; Function Attrs: mustprogress nounwind uwtable
define linkonce_odr hidden noundef ptr @_ZNK6Method13method_holderEv(ptr noundef nonnull align 8 dereferenceable(88) %0) #1 comdat align 2 {
  %2 = alloca ptr, align 8
  store ptr %0, ptr %2, align 8
  %3 = load ptr, ptr %2, align 8
  %4 = call noundef ptr @_ZNK6Method9constantsEv(ptr noundef nonnull align 8 dereferenceable(88) %3)
  %5 = call noundef ptr @_ZNK12ConstantPool11pool_holderEv(ptr noundef nonnull align 8 dereferenceable(68) %4)
  ret ptr %5
}

; Function Attrs: mustprogress nounwind uwtable
define linkonce_odr hidden noundef zeroext i1 @_ZNK6Method12is_protectedEv(ptr noundef nonnull align 8 dereferenceable(88) %0) #1 comdat align 2 {
  %2 = alloca ptr, align 8
  %3 = alloca %class.AccessFlags, align 4
  store ptr %0, ptr %2, align 8
  %4 = load ptr, ptr %2, align 8
  %5 = call i32 @_ZNK6Method12access_flagsEv(ptr noundef nonnull align 8 dereferenceable(88) %4)
  %6 = getelementptr inbounds %class.AccessFlags, ptr %3, i32 0, i32 0
  store i32 %5, ptr %6, align 4
  %7 = call noundef zeroext i1 @_ZNK11AccessFlags12is_protectedEv(ptr noundef nonnull align 4 dereferenceable(4) %3)
  ret i1 %7
}

; Function Attrs: mustprogress nounwind uwtable
define linkonce_odr hidden void @_ZN15fieldDescriptorC2Ev(ptr noundef nonnull align 8 dereferenceable(48) %0) unnamed_addr #1 comdat align 2 {
  %2 = alloca ptr, align 8
  store ptr %0, ptr %2, align 8
  %3 = load ptr, ptr %2, align 8
  %4 = getelementptr inbounds %class.fieldDescriptor, ptr %3, i32 0, i32 0
  call void @_ZN9FieldInfoC2Ev(ptr noundef nonnull align 4 dereferenceable(26) %4)
  %5 = getelementptr inbounds %class.fieldDescriptor, ptr %3, i32 0, i32 1
  call void @_ZN18constantPoolHandleC2Ev(ptr noundef nonnull align 8 dereferenceable(16) %5)
  ret void
}

; Function Attrs: mustprogress nounwind uwtable
define linkonce_odr hidden noundef ptr @_ZN13InstanceKlass4castEP5Klass(ptr noundef %0) #1 comdat align 2 {
  %2 = alloca ptr, align 8
  store ptr %0, ptr %2, align 8
  %3 = load ptr, ptr %2, align 8
  %4 = call noundef ptr @_ZN13InstanceKlass4castEPK5Klass(ptr noundef %3)
  ret ptr %4
}

; Function Attrs: mustprogress nounwind uwtable
define linkonce_odr hidden void @_ZN19NoSafepointVerifierC2Ev(ptr noundef nonnull align 8 dereferenceable(8) %0) unnamed_addr #1 comdat align 2 {
  %2 = alloca ptr, align 8
  store ptr %0, ptr %2, align 8
  ret void
}

; Function Attrs: mustprogress nounwind uwtable
define hidden noundef zeroext i1 @_ZN13ClassVerifier19is_protected_accessEP13InstanceKlassP5KlassP6SymbolS5_b(ptr noundef nonnull align 8 dereferenceable(8192) %0, ptr noundef %1, ptr noundef %2, ptr noundef %3, ptr noundef %4, i1 noundef zeroext %5) #1 align 2 {
  %7 = alloca i1, align 1
  %8 = alloca ptr, align 8
  %9 = alloca ptr, align 8
  %10 = alloca ptr, align 8
  %11 = alloca ptr, align 8
  %12 = alloca ptr, align 8
  %13 = alloca i8, align 1
  %14 = alloca %class.NoSafepointVerifier, align 8
  %15 = alloca i32, align 4
  %16 = alloca ptr, align 8
  %17 = alloca %class.fieldDescriptor, align 8
  %18 = alloca ptr, align 8
  %19 = alloca ptr, align 8
  store ptr %0, ptr %8, align 8
  store ptr %1, ptr %9, align 8
  store ptr %2, ptr %10, align 8
  store ptr %3, ptr %11, align 8
  store ptr %4, ptr %12, align 8
  %20 = zext i1 %5 to i8
  store i8 %20, ptr %13, align 1
  call void @_ZN19NoSafepointVerifierC2Ev(ptr noundef nonnull align 8 dereferenceable(8) %14)
  %21 = load ptr, ptr %9, align 8
  %22 = load ptr, ptr %10, align 8
  %23 = call noundef zeroext i1 @_ZNK5Klass14is_subclass_ofEPKS_(ptr noundef nonnull align 8 dereferenceable(196) %21, ptr noundef %22)
  br i1 %23, label %25, label %24

24:                                               ; preds = %6
  store i1 false, ptr %7, align 1
  store i32 1, ptr %15, align 4
  br label %72

25:                                               ; preds = %6
  %26 = load ptr, ptr %10, align 8
  %27 = call noundef ptr @_ZN13InstanceKlass4castEP5Klass(ptr noundef %26)
  store ptr %27, ptr %16, align 8
  call void @_ZN15fieldDescriptorC2Ev(ptr noundef nonnull align 8 dereferenceable(48) %17)
  %28 = load i8, ptr %13, align 1
  %29 = trunc i8 %28 to i1
  br i1 %29, label %30, label %51

30:                                               ; preds = %25
  %31 = load ptr, ptr %16, align 8
  %32 = load ptr, ptr %11, align 8
  %33 = load ptr, ptr %12, align 8
  %34 = load ptr, ptr %31, align 8
  %35 = getelementptr inbounds ptr, ptr %34, i64 24
  %36 = load ptr, ptr %35, align 8
  %37 = call noundef ptr %36(ptr noundef nonnull align 8 dereferenceable(464) %31, ptr noundef %32, ptr noundef %33, i32 noundef 0, i32 noundef 0)
  store ptr %37, ptr %18, align 8
  %38 = load ptr, ptr %18, align 8
  %39 = icmp ne ptr %38, null
  br i1 %39, label %40, label %50

40:                                               ; preds = %30
  %41 = load ptr, ptr %18, align 8
  %42 = call noundef zeroext i1 @_ZNK6Method12is_protectedEv(ptr noundef nonnull align 8 dereferenceable(88) %41)
  br i1 %42, label %43, label %50

43:                                               ; preds = %40
  %44 = load ptr, ptr %9, align 8
  %45 = load ptr, ptr %18, align 8
  %46 = call noundef ptr @_ZNK6Method13method_holderEv(ptr noundef nonnull align 8 dereferenceable(88) %45)
  %47 = call noundef zeroext i1 @_ZNK13InstanceKlass21is_same_class_packageEPK5Klass(ptr noundef nonnull align 8 dereferenceable(464) %44, ptr noundef %46)
  br i1 %47, label %49, label %48

48:                                               ; preds = %43
  store i1 true, ptr %7, align 1
  store i32 1, ptr %15, align 4
  br label %71

49:                                               ; preds = %43
  br label %50

50:                                               ; preds = %49, %40, %30
  br label %70

51:                                               ; preds = %25
  %52 = load ptr, ptr %16, align 8
  %53 = load ptr, ptr %11, align 8
  %54 = load ptr, ptr %12, align 8
  %55 = load ptr, ptr %52, align 8
  %56 = getelementptr inbounds ptr, ptr %55, i64 23
  %57 = load ptr, ptr %56, align 8
  %58 = call noundef ptr %57(ptr noundef nonnull align 8 dereferenceable(464) %52, ptr noundef %53, ptr noundef %54, ptr noundef %17)
  store ptr %58, ptr %19, align 8
  %59 = load ptr, ptr %19, align 8
  %60 = icmp ne ptr %59, null
  br i1 %60, label %61, label %69

61:                                               ; preds = %51
  %62 = call noundef zeroext i1 @_ZNK15fieldDescriptor12is_protectedEv(ptr noundef nonnull align 8 dereferenceable(48) %17)
  br i1 %62, label %63, label %69

63:                                               ; preds = %61
  %64 = load ptr, ptr %9, align 8
  %65 = load ptr, ptr %19, align 8
  %66 = call noundef zeroext i1 @_ZNK13InstanceKlass21is_same_class_packageEPK5Klass(ptr noundef nonnull align 8 dereferenceable(464) %64, ptr noundef %65)
  br i1 %66, label %68, label %67

67:                                               ; preds = %63
  store i1 true, ptr %7, align 1
  store i32 1, ptr %15, align 4
  br label %71

68:                                               ; preds = %63
  br label %69

69:                                               ; preds = %68, %61, %51
  br label %70

70:                                               ; preds = %69, %50
  store i1 false, ptr %7, align 1
  store i32 1, ptr %15, align 4
  br label %71

71:                                               ; preds = %70, %67, %48
  call void @_ZN15fieldDescriptorD2Ev(ptr noundef nonnull align 8 dereferenceable(48) %17) #11
  br label %72

72:                                               ; preds = %71, %24
  call void @_ZN19NoSafepointVerifierD2Ev(ptr noundef nonnull align 8 dereferenceable(8) %14) #11
  %73 = load i1, ptr %7, align 1
  ret i1 %73
}