; Function Attrs: mustprogress nounwind uwtable
define hidden noundef zeroext i1 @_ZN13ClassVerifier19is_protected_accessEP13InstanceKlassP5KlassP6SymbolS5_b(ptr nocapture nonnull readnone align 8 %0, ptr noundef nonnull %1, ptr noundef %2, ptr noundef %3, ptr noundef %4, i1 noundef zeroext %5) local_unnamed_addr #1 align 2 {
  %7 = alloca %class.fieldDescriptor, align 8
  %8 = tail call noundef zeroext i1 @_ZNK5Klass14is_subclass_ofEPKS_(ptr noundef nonnull align 8 dereferenceable(196) %1, ptr noundef %2) #20
  br i1 %8, label %9, label %39

9:                                                ; preds = %6
  %10 = getelementptr inbounds i8, ptr %7, i64 4
  call void @llvm.memset.p0.i64(ptr noundef nonnull align 4 dereferenceable(22) %10, i8 0, i64 22, i1 false)
  %11 = getelementptr inbounds i8, ptr %7, i64 32
  call void @llvm.memset.p0.i64(ptr noundef nonnull align 8 dereferenceable(16) %11, i8 0, i64 16, i1 false)
  %12 = load ptr, ptr %2, align 8
  br i1 %5, label %13, label %28

13:                                               ; preds = %9
  %14 = getelementptr inbounds i8, ptr %12, i64 192
  %15 = load ptr, ptr %14, align 8
  %16 = tail call noundef ptr %15(ptr noundef nonnull align 8 dereferenceable(464) %2, ptr noundef %3, ptr noundef %4, i32 noundef 0, i32 noundef 0) #20
  %.not19 = icmp eq ptr %16, null
  br i1 %.not19, label %37, label %17

17:                                               ; preds = %13
  %18 = getelementptr inbounds i8, ptr %16, i64 40
  %.sroa.0.0.copyload.i.i = load i32, ptr %18, align 8
  %19 = and i32 %.sroa.0.0.copyload.i.i, 4
  %.not21 = icmp eq i32 %19, 0
  br i1 %.not21, label %37, label %20

20:                                               ; preds = %17
  %21 = getelementptr inbounds i8, ptr %16, i64 8
  %22 = load ptr, ptr %21, align 8
  %23 = getelementptr inbounds i8, ptr %22, i64 8
  %24 = load ptr, ptr %23, align 8
  %25 = getelementptr inbounds i8, ptr %24, i64 24
  %26 = load ptr, ptr %25, align 8
  %27 = tail call noundef zeroext i1 @_ZNK13InstanceKlass21is_same_class_packageEPK5Klass(ptr noundef nonnull align 8 dereferenceable(464) %1, ptr noundef %26) #20
  br i1 %27, label %37, label %38

28:                                               ; preds = %9
  %29 = getelementptr inbounds i8, ptr %12, i64 184
  %30 = load ptr, ptr %29, align 8
  %31 = call noundef ptr %30(ptr noundef nonnull align 8 dereferenceable(464) %2, ptr noundef %3, ptr noundef %4, ptr noundef nonnull %7) #20
  %.not = icmp eq ptr %31, null
  br i1 %.not, label %37, label %32

32:                                               ; preds = %28
  %33 = getelementptr inbounds i8, ptr %7, i64 12
  %.sroa.0.0.copyload.i.i.i = load i32, ptr %33, align 4
  %34 = and i32 %.sroa.0.0.copyload.i.i.i, 4
  %.not20 = icmp eq i32 %34, 0
  br i1 %.not20, label %37, label %35

35:                                               ; preds = %32
  %36 = call noundef zeroext i1 @_ZNK13InstanceKlass21is_same_class_packageEPK5Klass(ptr noundef nonnull align 8 dereferenceable(464) %1, ptr noundef nonnull %31) #20
  br i1 %36, label %37, label %38

37:                                               ; preds = %28, %32, %35, %13, %17, %20
  br label %38

38:                                               ; preds = %35, %20, %37
  %.0 = phi i1 [ false, %37 ], [ true, %20 ], [ true, %35 ]
  call void @_ZN18constantPoolHandleD1Ev(ptr noundef nonnull align 8 dereferenceable(16) %11) #20
  br label %39

39:                                               ; preds = %6, %38
  %.1 = phi i1 [ %.0, %38 ], [ false, %6 ]
  ret i1 %.1
}